Certificate:
    Data:
        Version: 1 (0x0)
        Serial Number: 2 (0x2)
        Signature Algorithm: sha256WithRSAEncryption
        Issuer: CN=root.dbmx.net
        Validity
            Not Before: Oct 27 19:12:05 2021 GMT
            Not After : Mar 14 19:12:05 2049 GMT
        Subject: CN=client
        Subject Public Key Info:
            Public Key Algorithm: rsaEncryption
                RSA Public-Key: (2048 bit)
                Modulus:
                    00:9b:07:8b:64:36:64:c2:7d:c0:c8:13:9f:e2:4c:
                    b1:5b:d2:b5:9e:64:c8:6f:2c:b4:7b:46:8f:49:8e:
                    ad:d5:3c:3a:87:aa:6a:97:3b:db:4d:a5:07:49:83:
                    a2:75:36:59:2f:e8:06:a4:6a:7f:58:73:5a:cb:d2:
                    89:c8:64:c5:88:d6:a7:6e:50:23:84:17:f1:e7:28:
                    44:09:c5:9d:51:a9:11:b0:d9:9f:da:9e:9f:0c:c2:
                    bc:d9:e3:82:9a:4b:6f:01:e3:75:70:c8:51:9c:1d:
                    8e:ee:ee:db:93:1f:05:c9:fc:c2:53:a4:23:da:78:
                    64:d0:c2:4d:a1:91:ae:71:b6:d7:04:74:ad:a7:00:
                    b7:d9:f5:b8:70:f4:6b:7f:a8:2e:e2:8a:d9:52:1d:
                    dd:66:a9:03:c5:cf:3a:52:a1:15:65:6e:c7:bd:fd:
                    1e:ad:fd:82:3c:16:7d:88:3a:6b:a1:b2:33:a5:6f:
                    28:f8:29:db:b0:45:e2:84:44:41:be:dd:2a:2d:6f:
                    0a:9c:d0:76:dc:e4:c6:47:f9:13:09:d9:3f:c9:c6:
                    92:7d:b3:3e:82:80:e9:d1:07:42:99:65:9f:18:ee:
                    dd:08:ed:08:8f:38:28:fd:86:b7:b6:73:25:f2:48:
                    a2:4a:eb:22:29:80:88:c6:08:f7:58:4c:84:51:69:
                    c2:d7
                Exponent: 65537 (0x10001)
    Signature Algorithm: sha256WithRSAEncryption
         14:76:7f:09:45:9b:d9:c1:c8:be:32:c7:a1:18:84:0d:86:2f:
         c7:c6:f6:21:e5:c4:1f:ad:a6:72:71:af:1b:42:27:c3:79:ae:
         4a:c7:8a:d0:2e:53:eb:51:b5:e4:7c:c7:d3:a8:ba:63:55:92:
         9c:3c:6a:89:ff:d3:fa:be:e3:12:21:23:51:c8:d7:22:ee:25:
         32:c9:56:be:11:42:34:a1:ac:b2:43:a8:4f:c2:d0:3c:a0:2c:
         9d:15:51:b1:32:dc:a9:97:54:ef:39:cc:a0:33:38:71:1c:b8:
         60:a3:e5:10:2d:4d:ad:35:c3:2d:35:d9:53:7f:78:60:66:b5:
         41:f3:ba:75:7d:f2:32:16:c5:5c:7f:41:3f:74:78:38:df:29:
         ef:d9:e6:10:91:9a:e5:c4:51:59:c4:81:a3:ab:5e:b1:9d:ff:
         a2:53:4b:78:66:76:3b:2e:f5:8a:6d:15:f3:0e:e8:ce:78:88:
         9e:a9:32:a1:f4:cb:21:af:7a:1e:21:84:1b:73:ce:52:7f:38:
         47:3d:32:70:c3:4c:da:84:44:91:4b:e6:41:a4:78:2f:b0:f4:
         06:5f:4e:90:a6:b2:d6:0b:d9:74:8a:9d:b1:d9:68:53:a1:79:
         0d:5e:88:c4:c5:cf:7e:b7:66:b1:90:a0:47:b7:cd:65:ea:1c:
         ad:dd:9b:dc
-----BEGIN CERTIFICATE-----
MIICnTCCAYUCAQIwDQYJKoZIhvcNAQELBQAwGDEWMBQGA1UEAwwNcm9vdC5kYm14
Lm5ldDAeFw0yMTEwMjcxOTEyMDVaFw00OTAzMTQxOTEyMDVaMBExDzANBgNVBAMM
BmNsaWVudDCCASIwDQYJKoZIhvcNAQEBBQADggEPADCCAQoCggEBAJsHi2Q2ZMJ9
wMgTn+JMsVvStZ5kyG8stHtGj0mOrdU8Ooeqapc7202lB0mDonU2WS/oBqRqf1hz
WsvSichkxYjWp25QI4QX8ecoRAnFnVGpEbDZn9qenwzCvNnjgppLbwHjdXDIUZwd
ju7u25MfBcn8wlOkI9p4ZNDCTaGRrnG21wR0racAt9n1uHD0a3+oLuKK2VId3Wap
A8XPOlKhFWVux739Hq39gjwWfYg6a6GyM6VvKPgp27BF4oREQb7dKi1vCpzQdtzk
xkf5EwnZP8nGkn2zPoKA6dEHQpllnxju3QjtCI84KP2Gt7ZzJfJIokrrIimAiMYI
91hMhFFpwtcCAwEAATANBgkqhkiG9w0BAQsFAAOCAQEAFHZ/CUWb2cHIvjLHoRiE
DYYvx8b2IeXEH62mcnGvG0Inw3muSseK0C5T61G15HzH06i6Y1WSnDxqif/T+r7j
EiEjUcjXIu4lMslWvhFCNKGsskOoT8LQPKAsnRVRsTLcqZdU7znMoDM4cRy4YKPl
EC1NrTXDLTXZU394YGa1QfO6dX3yMhbFXH9BP3R4ON8p79nmEJGa5cRRWcSBo6te
sZ3/olNLeGZ2Oy71im0V8w7ozniInqkyofTLIa96HiGEG3POUn84Rz0ycMNM2oRE
kUvmQaR4L7D0Bl9OkKay1gvZdIqdsdloU6F5DV6IxMXPfrdmsZCgR7fNZeocrd2b
3A==
-----END CERTIFICATE-----
