Certificate:
    Data:
        Version: 1 (0x0)
        Serial Number: 1 (0x1)
        Signature Algorithm: sha256WithRSAEncryption
        Issuer: CN=root.dbmx.net
        Validity
            Not Before: Oct 26 19:25:17 2021 GMT
            Not After : Mar 13 19:25:17 2049 GMT
        Subject: CN=client
        Subject Public Key Info:
            Public Key Algorithm: rsaEncryption
                RSA Public-Key: (2048 bit)
                Modulus:
                    00:a8:93:a9:00:39:22:55:03:1b:4b:9c:01:b6:a7:
                    64:47:dd:e7:f6:ba:c1:dc:bf:47:4c:57:b0:e0:0d:
                    2d:e3:76:57:d0:91:0d:9b:f7:31:5c:86:31:e7:01:
                    a8:bd:56:63:be:be:3e:f3:9e:35:1e:5c:e8:97:07:
                    d2:48:3a:23:85:5a:78:ec:dd:cc:61:3c:d6:72:4d:
                    49:b7:dc:fc:98:c2:ad:10:57:f3:cb:d6:35:9b:5e:
                    11:ff:f9:b7:69:9b:bd:e8:62:62:ef:e5:aa:f6:73:
                    02:a7:72:fc:e6:93:fd:0e:2e:02:b2:40:4f:97:c0:
                    df:dd:7b:25:8a:61:89:ce:87:70:d8:83:0d:fe:45:
                    20:ed:27:0a:04:72:b5:f6:01:2a:b6:7d:be:25:ad:
                    61:f5:2b:46:85:bc:80:d3:e8:2a:3f:04:c6:e4:cc:
                    0a:a5:ee:98:69:8a:1e:b6:89:e6:c4:72:7a:72:1a:
                    e5:6d:18:f4:43:90:34:c9:5f:6f:e2:fa:e1:e2:76:
                    7c:02:57:ad:7c:ff:b6:46:a2:a6:ed:f3:a7:be:3e:
                    75:9d:de:03:8c:c2:32:a2:32:ed:cc:f2:23:5a:67:
                    84:e7:9f:8e:73:42:23:34:fe:ad:d3:2f:2a:dc:e2:
                    ff:a7:b8:6c:16:64:47:1f:08:66:9b:4e:97:e3:2d:
                    1a:0d
                Exponent: 65537 (0x10001)
    Signature Algorithm: sha256WithRSAEncryption
         80:81:70:5a:ba:86:44:a6:f2:46:eb:b5:81:62:d6:cc:70:1a:
         fc:27:b8:1d:7e:83:e2:10:53:48:26:f0:c8:1e:78:e2:74:d2:
         fa:70:75:97:5f:91:24:e6:c6:4d:93:41:8c:f0:c0:86:67:4f:
         c7:e5:5c:d6:7c:b1:ce:2b:a9:99:61:3f:64:a9:76:0b:93:31:
         bf:94:40:75:19:08:42:45:91:a6:46:4a:f5:2d:ff:fb:8d:11:
         2c:f1:64:09:07:2e:b1:6b:df:b9:f6:0a:ba:0f:94:ee:33:a2:
         c3:99:e1:00:9c:73:57:45:e9:bb:43:09:cf:f2:5b:86:b6:f8:
         73:94:57:b7:9a:cd:a2:1e:36:40:20:5b:4d:de:ad:d1:95:31:
         2b:2f:1a:00:c5:90:b6:02:bc:b1:76:69:f1:14:e9:14:24:c7:
         af:d5:2b:11:67:2f:12:2a:fb:16:31:4b:75:fe:0d:e2:63:0a:
         f9:ba:67:9e:ba:fa:77:2b:b8:86:61:e8:2d:ac:2c:bf:fa:20:
         1c:91:c9:f9:89:de:cf:06:b4:5f:04:03:e2:d9:9b:74:02:e0:
         46:45:cd:3a:f4:0d:f0:2a:c2:90:dc:fc:e2:30:07:9b:c6:66:
         9c:b9:c3:bc:de:dc:a3:cf:a7:e8:7d:b7:23:65:33:cc:e8:b7:
         14:e7:d3:c8
-----BEGIN CERTIFICATE-----
MIICnTCCAYUCAQEwDQYJKoZIhvcNAQELBQAwGDEWMBQGA1UEAwwNcm9vdC5kYm14
Lm5ldDAeFw0yMTEwMjYxOTI1MTdaFw00OTAzMTMxOTI1MTdaMBExDzANBgNVBAMM
BmNsaWVudDCCASIwDQYJKoZIhvcNAQEBBQADggEPADCCAQoCggEBAKiTqQA5IlUD
G0ucAbanZEfd5/a6wdy/R0xXsOANLeN2V9CRDZv3MVyGMecBqL1WY76+PvOeNR5c
6JcH0kg6I4VaeOzdzGE81nJNSbfc/JjCrRBX88vWNZteEf/5t2mbvehiYu/lqvZz
Aqdy/OaT/Q4uArJAT5fA3917JYphic6HcNiDDf5FIO0nCgRytfYBKrZ9viWtYfUr
RoW8gNPoKj8ExuTMCqXumGmKHraJ5sRyenIa5W0Y9EOQNMlfb+L64eJ2fAJXrXz/
tkaipu3zp74+dZ3eA4zCMqIy7czyI1pnhOefjnNCIzT+rdMvKtzi/6e4bBZkRx8I
ZptOl+MtGg0CAwEAATANBgkqhkiG9w0BAQsFAAOCAQEAgIFwWrqGRKbyRuu1gWLW
zHAa/Ce4HX6D4hBTSCbwyB544nTS+nB1l1+RJObGTZNBjPDAhmdPx+Vc1nyxziup
mWE/ZKl2C5Mxv5RAdRkIQkWRpkZK9S3/+40RLPFkCQcusWvfufYKug+U7jOiw5nh
AJxzV0Xpu0MJz/Jbhrb4c5RXt5rNoh42QCBbTd6t0ZUxKy8aAMWQtgK8sXZp8RTp
FCTHr9UrEWcvEir7FjFLdf4N4mMK+bpnnrr6dyu4hmHoLawsv/ogHJHJ+Ynezwa0
XwQD4tmbdALgRkXNOvQN8CrCkNz84jAHm8ZmnLnDvN7co8+n6H23I2UzzOi3FOfT
yA==
-----END CERTIFICATE-----
