Certificate:
    Data:
        Version: 1 (0x0)
        Serial Number: 1 (0x1)
        Signature Algorithm: sha256WithRSAEncryption
        Issuer: CN=root.dbmx.net
        Validity
            Not Before: Oct 27 06:59:10 2021 GMT
            Not After : Mar 14 06:59:10 2049 GMT
        Subject: CN=client
        Subject Public Key Info:
            Public Key Algorithm: rsaEncryption
                RSA Public-Key: (2048 bit)
                Modulus:
                    00:b9:d0:29:fd:de:95:00:71:bb:31:86:93:31:b8:
                    ce:56:7d:69:25:91:6b:23:0b:7f:b0:06:97:c9:50:
                    07:b6:a5:15:ae:3b:31:38:2e:15:3f:0c:a9:11:02:
                    79:da:f5:e2:60:1e:ea:eb:bb:4f:85:f3:ae:ea:1b:
                    ba:dd:a0:ea:8e:09:4a:18:da:2f:61:22:be:81:9d:
                    6c:a4:f4:e6:bc:3a:a2:db:c0:0b:cb:62:d1:31:53:
                    5a:2e:df:6b:de:82:2b:cf:d8:bb:cd:c5:42:ee:ea:
                    43:a1:3d:70:b1:33:4a:c5:ec:f1:98:ac:56:f7:fe:
                    54:a1:95:d2:25:f7:6b:6e:7d:e1:a1:d7:a9:d5:d6:
                    31:f6:9e:61:e8:09:8e:29:59:42:65:90:89:ff:9d:
                    6f:ca:81:25:a7:d2:d9:2b:5c:1d:f3:73:13:25:10:
                    52:44:42:da:bd:bf:52:0d:da:6c:7f:80:f3:11:9b:
                    c4:3a:60:5e:1c:b6:4f:12:db:bd:b9:8f:f2:84:6b:
                    0d:42:4f:bf:2e:52:ae:90:16:2c:05:18:5a:f2:6e:
                    c8:e2:76:80:8b:0d:d6:86:a4:5a:8b:3f:4b:e4:e8:
                    8f:cc:ea:3b:ce:c9:ee:21:d5:eb:d8:3e:7f:ab:f8:
                    7a:83:a5:43:46:a9:9c:ef:48:10:1b:d6:5c:6c:9e:
                    29:a3
                Exponent: 65537 (0x10001)
    Signature Algorithm: sha256WithRSAEncryption
         00:f1:a0:83:8c:6d:68:74:5f:47:90:b9:f3:78:bb:32:50:c9:
         c2:71:66:34:bf:76:1f:30:21:c6:37:34:1c:2c:85:06:a0:49:
         a6:85:32:06:cc:31:f0:60:0c:e5:80:75:80:4c:d7:94:e7:51:
         39:29:ce:37:91:b9:60:c1:13:73:b8:00:e6:fc:17:68:21:c7:
         b8:6a:ee:6a:e4:14:ac:af:4b:b8:37:68:b7:73:4c:eb:0e:b1:
         3b:e3:c1:0e:55:0d:b2:34:5b:ca:cc:a9:48:ee:1e:85:2f:cb:
         5a:1b:04:fc:a7:d2:e7:eb:0a:93:00:18:1c:04:56:fa:8b:c9:
         0a:ec:42:36:b4:85:59:5a:ff:37:cf:3f:73:bd:a3:58:14:c0:
         aa:be:e4:8f:8f:1b:c6:a0:fd:f8:6a:d4:8e:4c:28:21:27:54:
         8d:ba:6a:c6:73:e5:19:03:42:f8:15:99:1b:64:9f:a0:89:25:
         6a:ea:07:ef:d4:8d:cf:4d:54:11:7a:2b:0b:4e:1c:7d:a7:c6:
         e0:23:8f:9a:93:aa:5a:13:2b:cb:17:c6:57:1b:5f:84:bc:e8:
         c5:d4:a7:c1:85:c7:db:d1:5a:d5:fc:ff:47:96:ca:33:1e:a5:
         72:17:c5:39:97:ac:a0:f5:2e:fb:c0:1b:cd:41:15:1f:d7:84:
         48:66:c3:5b
-----BEGIN CERTIFICATE-----
MIICnTCCAYUCAQEwDQYJKoZIhvcNAQELBQAwGDEWMBQGA1UEAwwNcm9vdC5kYm14
Lm5ldDAeFw0yMTEwMjcwNjU5MTBaFw00OTAzMTQwNjU5MTBaMBExDzANBgNVBAMM
BmNsaWVudDCCASIwDQYJKoZIhvcNAQEBBQADggEPADCCAQoCggEBALnQKf3elQBx
uzGGkzG4zlZ9aSWRayMLf7AGl8lQB7alFa47MTguFT8MqRECedr14mAe6uu7T4Xz
ruobut2g6o4JShjaL2EivoGdbKT05rw6otvAC8ti0TFTWi7fa96CK8/Yu83FQu7q
Q6E9cLEzSsXs8ZisVvf+VKGV0iX3a2594aHXqdXWMfaeYegJjilZQmWQif+db8qB
JafS2StcHfNzEyUQUkRC2r2/Ug3abH+A8xGbxDpgXhy2TxLbvbmP8oRrDUJPvy5S
rpAWLAUYWvJuyOJ2gIsN1oakWos/S+Toj8zqO87J7iHV69g+f6v4eoOlQ0apnO9I
EBvWXGyeKaMCAwEAATANBgkqhkiG9w0BAQsFAAOCAQEAAPGgg4xtaHRfR5C583i7
MlDJwnFmNL92HzAhxjc0HCyFBqBJpoUyBswx8GAM5YB1gEzXlOdROSnON5G5YMET
c7gA5vwXaCHHuGruauQUrK9LuDdot3NM6w6xO+PBDlUNsjRbysypSO4ehS/LWhsE
/KfS5+sKkwAYHARW+ovJCuxCNrSFWVr/N88/c72jWBTAqr7kj48bxqD9+GrUjkwo
ISdUjbpqxnPlGQNC+BWZG2SfoIklauoH79SNz01UEXorC04cfafG4COPmpOqWhMr
yxfGVxtfhLzoxdSnwYXH29Fa1fz/R5bKMx6lchfFOZesoPUu+8AbzUEVH9eESGbD
Ww==
-----END CERTIFICATE-----
