Certificate:
    Data:
        Version: 1 (0x0)
        Serial Number: 1 (0x1)
        Signature Algorithm: sha256WithRSAEncryption
        Issuer: CN=root.dbmx.net
        Validity
            Not Before: Oct 27 06:59:09 2021 GMT
            Not After : Mar 14 06:59:09 2049 GMT
        Subject: CN=localhost
        Subject Public Key Info:
            Public Key Algorithm: rsaEncryption
                RSA Public-Key: (2048 bit)
                Modulus:
                    00:b7:f7:9b:19:13:d8:bf:2d:0a:72:7f:0a:1c:46:
                    10:b2:d6:8a:85:a9:c5:4f:ce:d1:2d:83:02:49:b1:
                    9a:63:a7:45:70:72:69:96:ec:58:3b:4c:e2:8a:e2:
                    05:8a:13:3c:98:a1:da:92:40:6e:3e:e7:a7:32:99:
                    09:46:64:1c:44:7e:e0:4a:8e:ff:98:37:cc:b8:7e:
                    3a:92:b4:be:dd:23:c8:75:8f:89:ac:02:7e:92:c5:
                    8d:15:97:3d:2d:29:b1:d9:e7:87:04:69:91:48:c7:
                    f6:3a:50:4c:ca:60:4b:73:f6:a0:23:98:1b:20:1f:
                    7d:3b:7d:e4:57:7e:f1:ad:d3:9f:fb:fb:3d:e3:e9:
                    21:49:25:bd:89:88:71:18:11:40:13:1c:be:8d:90:
                    42:bf:c9:d4:32:20:2d:3e:9c:b0:25:02:1d:32:2c:
                    46:82:01:46:34:5f:ae:d2:69:c8:27:07:c7:28:45:
                    19:53:56:e3:0d:5d:b4:2b:be:ab:72:86:2b:ba:fb:
                    81:62:80:74:6c:4d:bb:95:7b:bb:b2:64:5e:7f:44:
                    77:1b:a1:71:ca:76:2d:94:7a:6f:ce:aa:34:57:eb:
                    e7:13:1c:66:9c:ba:91:03:e9:70:74:c3:96:18:f7:
                    e4:50:55:0a:d9:3f:b1:50:6f:52:1b:2b:e8:19:b6:
                    6a:81
                Exponent: 65537 (0x10001)
    Signature Algorithm: sha256WithRSAEncryption
         2d:cb:50:14:f0:5a:8d:27:2f:85:41:a7:1b:e5:bc:b5:4d:66:
         21:53:ad:27:9f:48:45:bf:da:3c:fd:92:05:c0:52:8d:07:8e:
         ea:36:2c:31:d9:f0:53:9b:7d:b3:a3:41:56:d3:08:70:a3:74:
         a0:9a:5a:81:3a:28:65:97:a1:8e:8f:3d:a8:d1:f0:8f:48:9c:
         eb:d0:85:79:db:b9:d3:ca:1c:3d:58:c8:78:f8:22:f0:dd:84:
         91:27:82:c4:50:94:0b:7b:5e:10:bd:4c:e3:5f:a9:99:4d:8a:
         3e:c6:25:0f:89:a9:85:00:ad:b7:90:ed:27:a3:eb:46:a2:c9:
         fe:9a:10:9e:d0:f0:a4:a4:47:d2:60:f4:dd:6f:ee:f4:d4:49:
         2e:fd:a6:07:01:22:2c:c0:11:32:6f:c2:a8:60:b2:59:27:bd:
         71:7a:16:d7:af:5e:3e:9d:99:e6:17:7f:22:fc:ea:13:ae:e1:
         a1:3c:ab:b9:62:f4:c7:73:e6:32:36:16:13:21:37:b6:4d:d2:
         ef:47:75:14:38:cf:cc:cf:aa:b6:0c:17:a3:68:27:18:b2:45:
         fd:b6:ed:e2:b6:bf:5e:b4:05:88:b7:79:f4:86:0a:15:82:d8:
         b7:f4:68:17:b9:58:ff:4c:ac:d8:f2:92:86:a7:ef:78:8e:4f:
         91:57:83:b0
-----BEGIN CERTIFICATE-----
MIICoDCCAYgCAQEwDQYJKoZIhvcNAQELBQAwGDEWMBQGA1UEAwwNcm9vdC5kYm14
Lm5ldDAeFw0yMTEwMjcwNjU5MDlaFw00OTAzMTQwNjU5MDlaMBQxEjAQBgNVBAMM
CWxvY2FsaG9zdDCCASIwDQYJKoZIhvcNAQEBBQADggEPADCCAQoCggEBALf3mxkT
2L8tCnJ/ChxGELLWioWpxU/O0S2DAkmxmmOnRXByaZbsWDtM4oriBYoTPJih2pJA
bj7npzKZCUZkHER+4EqO/5g3zLh+OpK0vt0jyHWPiawCfpLFjRWXPS0psdnnhwRp
kUjH9jpQTMpgS3P2oCOYGyAffTt95Fd+8a3Tn/v7PePpIUklvYmIcRgRQBMcvo2Q
Qr/J1DIgLT6csCUCHTIsRoIBRjRfrtJpyCcHxyhFGVNW4w1dtCu+q3KGK7r7gWKA
dGxNu5V7u7JkXn9Edxuhccp2LZR6b86qNFfr5xMcZpy6kQPpcHTDlhj35FBVCtk/
sVBvUhsr6Bm2aoECAwEAATANBgkqhkiG9w0BAQsFAAOCAQEALctQFPBajScvhUGn
G+W8tU1mIVOtJ59IRb/aPP2SBcBSjQeO6jYsMdnwU5t9s6NBVtMIcKN0oJpagToo
ZZehjo89qNHwj0ic69CFedu508ocPVjIePgi8N2EkSeCxFCUC3teEL1M41+pmU2K
PsYlD4mphQCtt5DtJ6PrRqLJ/poQntDwpKRH0mD03W/u9NRJLv2mBwEiLMARMm/C
qGCyWSe9cXoW169ePp2Z5hd/IvzqE67hoTyruWL0x3PmMjYWEyE3tk3S70d1FDjP
zM+qtgwXo2gnGLJF/bbt4ra/XrQFiLd59IYKFYLYt/RoF7lY/0ys2PKShqfveI5P
kVeDsA==
-----END CERTIFICATE-----
