Certificate:
    Data:
        Version: 1 (0x0)
        Serial Number: 1 (0x1)
        Signature Algorithm: sha256WithRSAEncryption
        Issuer: CN=root.dbmx.net
        Validity
            Not Before: Oct 27 19:12:05 2021 GMT
            Not After : Mar 14 19:12:05 2049 GMT
        Subject: CN=localhost
        Subject Public Key Info:
            Public Key Algorithm: rsaEncryption
                RSA Public-Key: (2048 bit)
                Modulus:
                    00:9f:05:ae:cf:95:8d:13:79:0f:70:1d:52:08:60:
                    76:f4:6a:18:6d:11:9b:f3:b1:63:d7:50:90:64:e2:
                    3d:2e:67:0d:ba:20:5f:b7:09:0f:bc:4a:6d:25:ac:
                    6f:94:55:e5:00:dd:95:ab:17:0b:50:0b:c1:14:ca:
                    11:ce:11:23:dc:e5:f6:55:39:60:ce:82:6b:4d:74:
                    62:2c:6e:e2:1a:21:be:d5:ca:d5:86:a0:ab:ba:14:
                    60:15:2d:83:5a:dd:31:9d:8a:2a:10:be:e9:d4:8e:
                    82:36:14:26:20:9b:5f:72:44:09:f1:c4:0c:08:9a:
                    6c:33:17:a0:6e:ad:ef:33:8d:13:59:13:ea:51:0c:
                    6d:49:69:87:b7:dd:cf:c7:6b:c1:7b:d0:99:2c:93:
                    1c:f3:17:3a:84:0b:27:2f:2b:3d:4c:46:ed:82:e7:
                    42:1a:f6:d6:3a:eb:6f:bc:9c:ab:9a:21:48:7e:2a:
                    dd:6e:a8:05:9f:2d:aa:a8:59:d4:d8:20:e1:ef:81:
                    68:53:89:40:72:59:c9:6e:98:1b:5b:c8:9e:f9:40:
                    81:14:ec:da:24:28:e0:6f:28:3d:83:23:61:29:24:
                    cf:19:17:26:8c:63:74:36:65:e0:dd:7b:97:d4:c7:
                    57:17:2f:d3:1e:0a:1a:c9:44:ff:d8:56:c3:47:dc:
                    a0:4b
                Exponent: 65537 (0x10001)
    Signature Algorithm: sha256WithRSAEncryption
         41:1d:48:25:cb:e5:ed:34:31:93:5d:56:05:a2:bf:91:da:c4:
         3d:ff:36:f4:51:36:07:c1:90:9b:ac:6b:e8:c8:bd:f1:13:dc:
         c9:2f:5e:29:53:ad:28:12:bc:69:59:79:5f:7f:17:89:9b:65:
         4d:78:88:eb:7e:d6:e3:9a:60:e0:85:60:dd:d6:90:85:98:35:
         c8:f5:2b:2b:01:e6:cb:bc:a1:9f:51:4d:80:f7:d8:2b:50:e1:
         c1:3f:c3:a0:1d:d7:b1:a4:a4:7d:74:42:5e:bb:a3:95:90:df:
         7a:dc:d7:9c:79:da:8c:01:87:12:f8:7e:9f:fe:68:a4:c9:9b:
         0c:9e:26:9d:de:74:70:6e:9f:c4:40:9c:af:fe:be:d3:29:4f:
         ed:a1:f8:10:5b:13:50:58:6f:2d:66:b9:c5:a0:85:d8:ec:09:
         ec:5b:9e:0b:c4:e2:67:7b:ba:0b:ad:a4:82:a7:74:6a:f0:44:
         dc:81:d0:0f:8a:ef:ea:13:d5:c7:7e:33:c7:e6:b4:d5:97:f9:
         54:36:41:21:96:0e:09:e2:bd:7b:8a:13:b6:94:dc:7c:a3:3e:
         c2:89:24:79:39:85:cb:ef:58:7c:09:5a:99:2f:c4:c0:81:4b:
         d3:75:89:24:cc:c5:79:82:42:18:e3:b1:21:60:78:25:e9:09:
         32:5d:5b:ff
-----BEGIN CERTIFICATE-----
MIICoDCCAYgCAQEwDQYJKoZIhvcNAQELBQAwGDEWMBQGA1UEAwwNcm9vdC5kYm14
Lm5ldDAeFw0yMTEwMjcxOTEyMDVaFw00OTAzMTQxOTEyMDVaMBQxEjAQBgNVBAMM
CWxvY2FsaG9zdDCCASIwDQYJKoZIhvcNAQEBBQADggEPADCCAQoCggEBAJ8Frs+V
jRN5D3AdUghgdvRqGG0Rm/OxY9dQkGTiPS5nDbogX7cJD7xKbSWsb5RV5QDdlasX
C1ALwRTKEc4RI9zl9lU5YM6Ca010Yixu4hohvtXK1Yagq7oUYBUtg1rdMZ2KKhC+
6dSOgjYUJiCbX3JECfHEDAiabDMXoG6t7zONE1kT6lEMbUlph7fdz8drwXvQmSyT
HPMXOoQLJy8rPUxG7YLnQhr21jrrb7ycq5ohSH4q3W6oBZ8tqqhZ1Ngg4e+BaFOJ
QHJZyW6YG1vInvlAgRTs2iQo4G8oPYMjYSkkzxkXJoxjdDZl4N17l9THVxcv0x4K
GslE/9hWw0fcoEsCAwEAATANBgkqhkiG9w0BAQsFAAOCAQEAQR1IJcvl7TQxk11W
BaK/kdrEPf829FE2B8GQm6xr6Mi98RPcyS9eKVOtKBK8aVl5X38XiZtlTXiI637W
45pg4IVg3daQhZg1yPUrKwHmy7yhn1FNgPfYK1DhwT/DoB3XsaSkfXRCXrujlZDf
etzXnHnajAGHEvh+n/5opMmbDJ4mnd50cG6fxECcr/6+0ylP7aH4EFsTUFhvLWa5
xaCF2OwJ7FueC8TiZ3u6C62kgqd0avBE3IHQD4rv6hPVx34zx+a01Zf5VDZBIZYO
CeK9e4oTtpTcfKM+wokkeTmFy+9YfAlamS/EwIFL03WJJMzFeYJCGOOxIWB4JekJ
Ml1b/w==
-----END CERTIFICATE-----
