Certificate:
    Data:
        Version: 1 (0x0)
        Serial Number: 1 (0x1)
        Signature Algorithm: sha256WithRSAEncryption
        Issuer: CN=root.dbmx.net
        Validity
            Not Before: Oct 26 19:25:17 2021 GMT
            Not After : Mar 13 19:25:17 2049 GMT
        Subject: CN=localhost
        Subject Public Key Info:
            Public Key Algorithm: rsaEncryption
                RSA Public-Key: (2048 bit)
                Modulus:
                    00:b1:78:76:55:67:38:f7:21:bf:1f:b2:3b:4a:ce:
                    cc:39:64:f5:27:3a:fa:88:d2:29:a5:da:49:c7:1d:
                    2a:c0:ca:ad:36:cf:72:47:0d:78:af:a6:81:42:8b:
                    8a:20:19:05:91:a8:d2:97:2a:ba:fd:97:84:9a:34:
                    8e:df:26:73:40:91:74:b5:31:e7:6b:ac:61:e7:9f:
                    ca:39:fe:80:9a:81:e9:1c:72:ce:82:67:1d:53:be:
                    44:fb:29:76:6c:7a:48:13:18:73:5f:7f:c7:01:3f:
                    69:6e:41:e4:93:b7:db:7c:24:07:df:69:77:7d:87:
                    16:64:9a:d4:5f:7e:54:ca:e5:9e:ea:1e:5c:cc:c8:
                    72:01:d9:d1:83:b1:98:43:cb:a2:9f:dc:30:ec:4c:
                    52:30:3a:ba:d2:8f:bf:98:ce:9d:96:a1:a8:55:ec:
                    00:a3:ae:af:e1:ee:d2:d0:3e:8f:14:31:95:77:db:
                    4a:96:f8:ea:60:23:4a:62:7b:02:78:18:80:14:20:
                    39:9b:ce:c5:2a:6e:41:00:eb:57:c2:45:11:88:35:
                    ce:d9:ff:20:3b:df:74:aa:66:de:bc:b7:2a:3c:7e:
                    bd:d1:25:3d:a0:63:b1:28:53:da:f4:21:25:21:0c:
                    13:10:2d:4e:2e:76:fc:49:f9:c2:9a:b6:b5:e5:bd:
                    a0:a9
                Exponent: 65537 (0x10001)
    Signature Algorithm: sha256WithRSAEncryption
         71:85:4d:18:dd:1f:ee:ab:fa:f4:92:ad:82:88:56:1a:1d:49:
         68:09:9f:dd:e3:b7:6d:e9:a2:e9:d8:0b:a7:8a:10:76:27:c8:
         20:a5:e4:2e:bc:bf:08:a2:ac:8c:fe:d8:9b:ea:e5:cf:3d:f7:
         52:af:3e:90:98:b8:c5:e1:d2:99:14:3c:ae:9f:c4:e6:6c:c8:
         47:8e:a3:a2:72:de:c5:1c:06:31:fb:b4:83:c8:e2:79:a3:63:
         82:c7:16:ed:33:a3:98:45:e9:40:bb:68:b7:dc:d1:b5:44:5f:
         8a:ce:0b:e5:6c:d6:be:55:3a:8f:58:c6:27:f2:73:ce:ee:94:
         39:33:6e:6d:14:d8:21:d3:12:b5:32:40:36:fd:56:a2:02:06:
         aa:f8:59:39:28:af:a6:f4:0a:10:af:9e:2e:07:8e:b0:97:44:
         28:78:43:0d:32:15:9d:92:60:b1:bd:a0:24:5a:56:1f:49:69:
         a5:19:1a:30:99:c8:e8:c1:79:4a:3e:97:e9:61:12:34:fa:14:
         7b:2c:06:cb:c0:20:06:48:1a:2a:d6:da:e2:18:6e:e2:25:9f:
         e5:df:72:a7:59:23:ba:aa:5a:e6:c4:1c:74:2a:eb:be:cc:ea:
         e4:de:be:40:7c:d3:93:46:95:b9:05:03:e3:b1:ab:94:70:38:
         a6:38:10:e9
-----BEGIN CERTIFICATE-----
MIICoDCCAYgCAQEwDQYJKoZIhvcNAQELBQAwGDEWMBQGA1UEAwwNcm9vdC5kYm14
Lm5ldDAeFw0yMTEwMjYxOTI1MTdaFw00OTAzMTMxOTI1MTdaMBQxEjAQBgNVBAMM
CWxvY2FsaG9zdDCCASIwDQYJKoZIhvcNAQEBBQADggEPADCCAQoCggEBALF4dlVn
OPchvx+yO0rOzDlk9Sc6+ojSKaXaSccdKsDKrTbPckcNeK+mgUKLiiAZBZGo0pcq
uv2XhJo0jt8mc0CRdLUx52usYeefyjn+gJqB6RxyzoJnHVO+RPspdmx6SBMYc19/
xwE/aW5B5JO323wkB99pd32HFmSa1F9+VMrlnuoeXMzIcgHZ0YOxmEPLop/cMOxM
UjA6utKPv5jOnZahqFXsAKOur+Hu0tA+jxQxlXfbSpb46mAjSmJ7AngYgBQgOZvO
xSpuQQDrV8JFEYg1ztn/IDvfdKpm3ry3Kjx+vdElPaBjsShT2vQhJSEMExAtTi52
/En5wpq2teW9oKkCAwEAATANBgkqhkiG9w0BAQsFAAOCAQEAcYVNGN0f7qv69JKt
gohWGh1JaAmf3eO3bemi6dgLp4oQdifIIKXkLry/CKKsjP7Ym+rlzz33Uq8+kJi4
xeHSmRQ8rp/E5mzIR46jonLexRwGMfu0g8jieaNjgscW7TOjmEXpQLtot9zRtURf
is4L5WzWvlU6j1jGJ/Jzzu6UOTNubRTYIdMStTJANv1WogIGqvhZOSivpvQKEK+e
LgeOsJdEKHhDDTIVnZJgsb2gJFpWH0lppRkaMJnI6MF5Sj6X6WESNPoUeywGy8Ag
BkgaKtba4hhu4iWf5d9yp1kjuqpa5sQcdCrrvszq5N6+QHzTk0aVuQUD47GrlHA4
pjgQ6Q==
-----END CERTIFICATE-----
